target datalayout = "e-m:e-p270:32:32-p271:32:32-p272:64:64-i64:64-i128:128-f80:128-n8:16:32:64-S128"
target triple = "x86_64-pc-linux-gnu"

%struct.Dar_Lib_t_ = type { ptr, i32, i32, [222 x i32], [222 x ptr], ptr, i32, ptr, [222 x ptr], ptr, [222 x ptr], ptr, [222 x ptr], [222 x i32], [222 x ptr], ptr, i32, i32, i32, [222 x i32], [222 x ptr], ptr, i32, [222 x i32], [222 x ptr], ptr, i32, ptr, i32, ptr, ptr, ptr, ptr, ptr }
%struct.Dar_LibObj_t_ = type { i64 }

; Function Attrs: nounwind uwtable
define internal ptr @Dar_LibObj(ptr noundef %0, i32 noundef %1) #0 {
  %3 = alloca ptr, align 8
  %4 = alloca i32, align 4
  store ptr %0, ptr %3, align 8
  store i32 %1, ptr %4, align 4
  %5 = load ptr, ptr %3, align 8
  %6 = getelementptr inbounds %struct.Dar_Lib_t_, ptr %5, i32 0, i32 0
  %7 = load ptr, ptr %6, align 8
  %8 = load i32, ptr %4, align 4
  %9 = sext i32 %8 to i64
  %10 = getelementptr inbounds %struct.Dar_LibObj_t_, ptr %7, i64 %9
  ret ptr %10
}

; Function Attrs: nounwind uwtable
define void @Dar_LibSetup_rec(ptr noundef %0, ptr noundef %1, i32 noundef %2, i32 noundef %3) #0 {
  %5 = alloca ptr, align 8
  %6 = alloca ptr, align 8
  %7 = alloca i32, align 4
  %8 = alloca i32, align 4
  store ptr %0, ptr %5, align 8
  store ptr %1, ptr %6, align 8
  store i32 %2, ptr %7, align 4
  store i32 %3, ptr %8, align 4
  %9 = load ptr, ptr %6, align 8
  %10 = load i64, ptr %9, align 4
  %11 = lshr i64 %10, 35
  %12 = and i64 %11, 1
  %13 = trunc i64 %12 to i32
  %14 = icmp ne i32 %13, 0
  br i1 %14, label %22, label %15

15:                                               ; preds = %4
  %16 = load ptr, ptr %6, align 8
  %17 = load i64, ptr %16, align 4
  %18 = lshr i64 %17, 36
  %19 = trunc i64 %18 to i32
  %20 = load i32, ptr %7, align 4
  %21 = icmp eq i32 %19, %20
  br i1 %21, label %22, label %23

22:                                               ; preds = %15, %4
  br label %86

23:                                               ; preds = %15
  %24 = load i32, ptr %7, align 4
  %25 = load ptr, ptr %6, align 8
  %26 = zext i32 %24 to i64
  %27 = load i64, ptr %25, align 4
  %28 = and i64 %26, 268435455
  %29 = shl i64 %28, 36
  %30 = and i64 %27, 68719476735
  %31 = or i64 %30, %29
  store i64 %31, ptr %25, align 4
  %32 = load ptr, ptr %5, align 8
  %33 = load ptr, ptr %5, align 8
  %34 = load ptr, ptr %6, align 8
  %35 = load i64, ptr %34, align 4
  %36 = and i64 %35, 65535
  %37 = trunc i64 %36 to i32
  %38 = call ptr @Dar_LibObj(ptr noundef %33, i32 noundef %37)
  %39 = load i32, ptr %7, align 4
  %40 = load i32, ptr %8, align 4
  call void @Dar_LibSetup_rec(ptr noundef %32, ptr noundef %38, i32 noundef %39, i32 noundef %40)
  %41 = load ptr, ptr %5, align 8
  %42 = load ptr, ptr %5, align 8
  %43 = load ptr, ptr %6, align 8
  %44 = load i64, ptr %43, align 4
  %45 = lshr i64 %44, 16
  %46 = and i64 %45, 65535
  %47 = trunc i64 %46 to i32
  %48 = call ptr @Dar_LibObj(ptr noundef %42, i32 noundef %47)
  %49 = load i32, ptr %7, align 4
  %50 = load i32, ptr %8, align 4
  call void @Dar_LibSetup_rec(ptr noundef %41, ptr noundef %48, i32 noundef %49, i32 noundef %50)
  %51 = load i32, ptr %8, align 4
  %52 = icmp ne i32 %51, 0
  br i1 %52, label %53, label %78

53:                                               ; preds = %23
  %54 = load ptr, ptr %6, align 8
  %55 = load ptr, ptr %5, align 8
  %56 = getelementptr inbounds %struct.Dar_Lib_t_, ptr %55, i32 0, i32 0
  %57 = load ptr, ptr %56, align 8
  %58 = ptrtoint ptr %54 to i64
  %59 = ptrtoint ptr %57 to i64
  %60 = sub i64 %58, %59
  %61 = sdiv exact i64 %60, 8
  %62 = trunc i64 %61 to i32
  %63 = load ptr, ptr %5, align 8
  %64 = getelementptr inbounds %struct.Dar_Lib_t_, ptr %63, i32 0, i32 14
  %65 = load i32, ptr %7, align 4
  %66 = sext i32 %65 to i64
  %67 = getelementptr inbounds [222 x ptr], ptr %64, i64 0, i64 %66
  %68 = load ptr, ptr %67, align 8
  %69 = load ptr, ptr %5, align 8
  %70 = getelementptr inbounds %struct.Dar_Lib_t_, ptr %69, i32 0, i32 13
  %71 = load i32, ptr %7, align 4
  %72 = sext i32 %71 to i64
  %73 = getelementptr inbounds [222 x i32], ptr %70, i64 0, i64 %72
  %74 = load i32, ptr %73, align 4
  %75 = add nsw i32 %74, 1
  store i32 %75, ptr %73, align 4
  %76 = sext i32 %74 to i64
  %77 = getelementptr inbounds i32, ptr %68, i64 %76
  store i32 %62, ptr %77, align 4
  br label %86

78:                                               ; preds = %23
  %79 = load ptr, ptr %5, align 8
  %80 = getelementptr inbounds %struct.Dar_Lib_t_, ptr %79, i32 0, i32 13
  %81 = load i32, ptr %7, align 4
  %82 = sext i32 %81 to i64
  %83 = getelementptr inbounds [222 x i32], ptr %80, i64 0, i64 %82
  %84 = load i32, ptr %83, align 4
  %85 = add nsw i32 %84, 1
  store i32 %85, ptr %83, align 4
  br label %86

86:                                               ; preds = %78, %53, %22
  ret void
}